; Function Attrs: mustprogress uwtable
define void @udtitvfmt_formatCalendarToResult_77(ptr noundef %0, ptr noundef %1, ptr noundef %2, ptr noundef %3, ptr noundef %4) local_unnamed_addr #1 {
  %6 = alloca %"class.icu_77::FormattedDateInterval", align 8
  %7 = load i32, ptr %4, align 4, !tbaa !13
  %8 = icmp slt i32 %7, 1
  br i1 %8, label %9, label %_ZN6icu_7713IcuCApiHelperI22UFormattedDateIntervalNS_26UFormattedDateIntervalImplELi1178880342EE8validateEPS1_R10UErrorCode.exit.thread

9:                                                ; preds = %5
  %10 = icmp eq ptr %3, null
  br i1 %10, label %.sink.split.i.i, label %11

11:                                               ; preds = %9
  %12 = getelementptr inbounds nuw i8, ptr %3, i64 16
  %13 = load i32, ptr %12, align 4, !tbaa !17
  %.not9.i.i = icmp eq i32 %13, 1178880342
  br i1 %.not9.i.i, label %_ZN6icu_7713IcuCApiHelperI22UFormattedDateIntervalNS_26UFormattedDateIntervalImplELi1178880342EE8validateEPS1_R10UErrorCode.exit, label %.sink.split.i.i

.sink.split.i.i:                                  ; preds = %11, %9
  %.sink.i.i = phi i32 [ 1, %9 ], [ 3, %11 ]
  store i32 %.sink.i.i, ptr %4, align 4, !tbaa !13
  br label %_ZN6icu_7713IcuCApiHelperI22UFormattedDateIntervalNS_26UFormattedDateIntervalImplELi1178880342EE8validateEPS1_R10UErrorCode.exit.thread

_ZN6icu_7713IcuCApiHelperI22UFormattedDateIntervalNS_26UFormattedDateIntervalImplELi1178880342EE8validateEPS1_R10UErrorCode.exit: ; preds = %11
  call void @llvm.lifetime.start.p0(i64 24, ptr nonnull %6) #14
  call void @_ZNK6icu_7718DateIntervalFormat13formatToValueERNS_8CalendarES2_R10UErrorCode(ptr dead_on_unwind nonnull writable sret(%"class.icu_77::FormattedDateInterval") align 8 %6, ptr noundef nonnull align 8 dereferenceable(1596) %0, ptr noundef nonnull align 8 dereferenceable(192) %1, ptr noundef nonnull align 8 dereferenceable(192) %2, ptr noundef nonnull align 4 dereferenceable(4) %4)
  %14 = getelementptr inbounds nuw i8, ptr %3, i64 24
  %15 = call noundef nonnull align 8 dereferenceable(20) ptr @_ZN6icu_7721FormattedDateIntervalaSEOS0_(ptr noundef nonnull align 8 dereferenceable(20) %14, ptr noundef nonnull align 8 dereferenceable(20) %6) #14
  call void @_ZN6icu_7721FormattedDateIntervalD1Ev(ptr noundef nonnull align 8 dereferenceable(20) %6) #14
  call void @llvm.lifetime.end.p0(i64 24, ptr nonnull %6) #14
  br label %_ZN6icu_7713IcuCApiHelperI22UFormattedDateIntervalNS_26UFormattedDateIntervalImplELi1178880342EE8validateEPS1_R10UErrorCode.exit.thread

_ZN6icu_7713IcuCApiHelperI22UFormattedDateIntervalNS_26UFormattedDateIntervalImplELi1178880342EE8validateEPS1_R10UErrorCode.exit.thread: ; preds = %.sink.split.i.i, %_ZN6icu_7713IcuCApiHelperI22UFormattedDateIntervalNS_26UFormattedDateIntervalImplELi1178880342EE8validateEPS1_R10UErrorCode.exit, %5
  ret void
}